; Function Attrs: mustprogress nounwind uwtable
define internal fastcc void @_ZN14core_hashtableI18default_hash_entryIZN3sat10aig_finder8find_ifsER10ptr_vectorINS1_6clauseEEE7ternaryEZNS2_8find_ifsES6_ENS7_4hashEZNS2_8find_ifsES6_ENS7_2eqEED2Ev(ptr noundef nonnull align 8 captures(none) dereferenceable(20) %0) unnamed_addr #8 align 2 personality ptr @__gxx_personality_v0 {
  %2 = load ptr, ptr %0, align 8, !tbaa !65
  %3 = icmp eq ptr %2, null
  br i1 %3, label %5, label %4

4:                                                ; preds = %1
  invoke void @_ZN6memory10deallocateEPv(ptr noundef nonnull %2)
          to label %5 unwind label %6

5:                                                ; preds = %1, %4
  store ptr null, ptr %0, align 8, !tbaa !65
  ret void

6:                                                ; preds = %4
  %7 = landingpad { ptr, i32 }
          catch ptr null
  %8 = extractvalue { ptr, i32 } %7, 0
  tail call void @__clang_call_terminate(ptr %8) #25
  unreachable
}